(dp1
S'output'
p2
S"<type 'exceptions.SyntaxError'> keyword can't be an expression (resume_writing.html, line 83)"
p3
sS'layer'
p4
S'/Users/myo/Documents/Work/web2py/web2py/applications/thecvroom/views/default/resume_writing.html'
p5
sS'code'
p6
S'response.write(\'<!DOCTYPE html>\\n<!--[if (gt IE 9)|!(IE)]><!--> <html class="no-js" lang="\', escape=False)\nresponse.write(T.accepted_language or \'en\')\nresponse.write(\'"> <!--<![endif]-->\\n  <head>\\n    <meta charset="utf-8">\\n    <!-- www.phpied.com/conditional-comments-block-downloads/ -->\\n    <!-- Always force latest IE rendering engine\\n         (even in intranet) & Chrome Frame\\n         Remove this if you use the .htaccess -->\\n    <meta http-equiv="X-UA-Compatible" content="IE=edge\', escape=False)\nresponse.write(not request.is_local and \',chrome=1\' or \'\')\nresponse.write(\'">\\n    <!--  Mobile Viewport Fix\\n          j.mp/mobileviewport & davidbcalhoun.com/2010/viewport-metatag\\n          device-width: Occupy full width of the screen in its current orientation\\n          initial-scale = 1.0 retains dimensions instead of zooming out if page height > device height\\n          user-scalable = yes allows the user to zoom in -->\\n    <meta name="viewport" content="width=device-width, initial-scale=1.0">\\n    <title>\', escape=False)\nresponse.write(response.title or request.application)\nresponse.write(\'</title>\\n    <!-- http://dev.w3.org/html5/markup/meta.name.html -->\\n    <meta name="application-name" content="\', escape=False)\nresponse.write(request.application)\nresponse.write(\'">\\n    <!-- Speaking of Google, don\\\'t forget to set your site up:\\n         http://google.com/webmasters -->\\n    <meta name="google-site-verification" content="">\\n    <!-- include stylesheets -->\\n    <link rel="stylesheet" href="\', escape=False)\nresponse.write(URL(\'static\',\'css/bootstrap.min.css\'))\nresponse.write(\'"/>\\n    <!-- Vendor Third Party Resourcs CSS -->\\n    <link rel="stylesheet" href="//maxcdn.bootstrapcdn.com/font-awesome/4.7.0/css/font-awesome.min.css">\\n    <link rel="stylesheet" href="\', escape=False)\nresponse.write(URL(\'static\',\'css/animate.min.css\'))\nresponse.write(\'"/>\\n    <link rel="stylesheet" href="\', escape=False)\nresponse.write(URL(\'static\',\'css/font-awesome.min.css\'))\nresponse.write(\'"/>\\n    <link rel="stylesheet" href="\', escape=False)\nresponse.write(URL(\'static\',\'css/prettyPhoto.css\'))\nresponse.write(\'"/>\\n    <link rel="stylesheet" href="\', escape=False)\nresponse.write(URL(\'static\',\'css/responsive.css\'))\nresponse.write(\'"/>\\n    <!-- Material Design CSS -->\\n    <link rel="stylesheet" href="\', escape=False)\nresponse.write(URL(\'static\',\'css/bootstrap-material-design.min.css\'))\nresponse.write(\'">\\n    <link rel="stylesheet" href="\', escape=False)\nresponse.write(URL(\'static\',\'css/ripples.min.css\'))\nresponse.write(\'">\\n<!--      <link rel="stylesheet" href="\', escape=False)\nresponse.write(URL(\'static\',\'css/bootstrap-material-datetimepicker.css\'))\nresponse.write(\'">\\n    <link href="//fonts.googleapis.com/icon?family=Material+Icons" rel="stylesheet"> -->\\n    <!-- Material Design CSS end -->\\n    <link rel="stylesheet" href="\', escape=False)\nresponse.write(URL(\'static\',\'css/main.css\'))\nresponse.write(\'"/>\\n    <link rel="shortcut icon" href="\', escape=False)\nresponse.write(URL(\'static\',\'images/favicon.ico\'))\nresponse.write(\'" type="image/x-icon">\\n    <link rel="apple-touch-icon" href="\', escape=False)\nresponse.write(URL(\'static\',\'images/favicon.png\'))\nresponse.write(\'">\\n    <!-- Own css to overwrite settings -->\\n    <link rel="stylesheet" href="\', escape=False)\nresponse.write(URL(\'static\',\'css/thecvroom.css\'))\nresponse.write(\'"/>\\n    <!-- All JavaScript at the bottom, except for Modernizr which enables\\n         HTML5 elements & feature detects -->\\n    <script src="\', escape=False)\nresponse.write(URL(\'static\',\'js/modernizr-2.8.3.min.js\'))\nresponse.write(\'"></script>\\n    <!-- Third Party Vendodr JS -->\\n    <script src="//cdnjs.cloudflare.com/ajax/libs/moment.js/2.18.1/moment.js"></script>\\n    <script src="\', escape=False)\nresponse.write(URL(\'static\',\'js/jquery.js\'))\nresponse.write(\'"></script>\\n<!--     <script src="\', escape=False)\nresponse.write(URL(\'static\',\'js/bootstrap-material-datetimepicker.js\'))\nresponse.write(\'"></script> -->\\n    <script src="\', escape=False)\nresponse.write(URL(\'static\',\'js/jquery.prettyPhoto.js\'))\nresponse.write(\'"></script>\\n    <script src="\', escape=False)\nresponse.write(URL(\'static\',\'js/jquery.isotope.min.js\'))\nresponse.write(\'"></script>\\n\\n    <!-- Material End -->\\n    <script src="\', escape=False)\nresponse.write(URL(\'static\',\'js/main.js\'))\nresponse.write(\'"></script>\\n    <script src="\', escape=False)\nresponse.write(URL(\'static\',\'js/wow.min.js\'))\nresponse.write(\'"></script>\\n    <!--[if lt IE 9]>\\n        <script src="\', escape=False)\nresponse.write(URL(\'static\',\'js/respond-1.4.2.min.js\'))\nresponse.write(\'"></script>\\n        <![endif]-->\\n    <!-- Favicons -->\\n    \', escape=False)\nresponse.write(\'<script type="text/javascript"><!--\\n    // These variables are used by the web2py_ajax_init function in web2py_ajax.js (which is loaded below).\\n    var w2p_ajax_confirm_message = "\', escape=False)\nresponse.write(T(\'Are you sure you want to delete this object?\'))\nresponse.write(\'";\\n    var w2p_ajax_disable_with_message = "\', escape=False)\nresponse.write(T(\'Working...\'))\nresponse.write(\'";\\n    var w2p_ajax_date_format = "\', escape=False)\nresponse.write(T(\'%Y-%m-%d\'))\nresponse.write(\'";\\n    var w2p_ajax_datetime_format = "\', escape=False)\nresponse.write(T(\'%Y-%m-%d %H:%M:%S\'))\nresponse.write(\'";\\n    var ajax_error_500 = \\\'\', escape=False)\nresponse.write(T.M(\'An error occured, please [[reload %s]] the page\') % URL(args=request.args, vars=request.get_vars))\nresponse.write("\'\\n    //--></script>\\n", escape=False)\nresponse.files.insert(0,URL(\'static\',\'js/jquery.js\'))\nresponse.files.insert(1,URL(\'static\',\'css/calendar.css\'))\nresponse.files.insert(2,URL(\'static\',\'js/calendar.js\'))\nresponse.files.insert(3,URL(\'static\',\'js/web2py.js\'))\nresponse.include_meta()\nresponse.include_files()\nresponse.write(\'\\n\', escape=False)\nresponse.write(\' <!-- this includes jquery.js, calendar.js/.css and web2py.js -->\\n    \', escape=False)\nresponse.write(\'\\n    \', escape=False)\n# using sidebars need to know what sidebar you want to use\nmc0 = \'col-md-12\'\nmc1 = \'col-md-9\'\nmc2 = \'col-md-6\'\nleft_sidebar_enabled = globals().get(\'left_sidebar_enabled\', False)\nright_sidebar_enabled = globals().get(\'right_sidebar_enabled\', False)\nmiddle_column = {0: mc0, 1: mc1, 2: mc2}[\n(left_sidebar_enabled and 1 or 0)+(right_sidebar_enabled and 1 or 0)]\nresponse.write(\'\\n  </head>\\n  <body>\\n    <!--[if lt IE 8]><p class="browserupgrade">You are using an <strong>outdated</strong> browser. Please <a href="http://browsehappy.com/">upgrade your browser</a> to improve your experience.</p><![endif]-->\\n    <div class="w2p_flash alert alert-dismissable">\', escape=False)\nresponse.write(response.flash or \'\')\nresponse.write(\'</div>\\n\\n    <!-- Website main header -->\\n    <header id="header">\\n        <div class="top-bar">\\n            <div class="container">\\n                <div class="row">\\n                    <div class="col-sm-6 col-xs-4">\\n                        <div class="top-number"><p><i class="fa fa-phone-square"></i>  +0123 456 70 90</p></div>\\n                    </div>\\n                    <div class="col-sm-6 col-xs-8">\\n                       <div class="social">\\n                            <ul class="social-share">\\n                                <li><a href="#"><i class="fa fa-facebook"></i></a></li>\\n                                <li><a href="#"><i class="fa fa-twitter"></i></a></li>\\n                                <li><a href="#"><i class="fa fa-linkedin"></i></a></li> \\n                                <li><a href="#"><i class="fa fa-dribbble"></i></a></li>\\n                                <li><a href="#"><i class="fa fa-skype"></i></a></li>\\n                            </ul>\\n                            <div class="search">\\n                                <form role="form">\\n                                    <input type="text" class="search-form" autocomplete="off" placeholder="Search">\\n                                    <i class="fa fa-search"></i>\\n                                </form>\\n                           </div>\\n                       </div>\\n                    </div>\\n                </div>\\n            </div><!--/.container-->\\n        </div><!--/.top-bar-->\\n\\n        <nav class="navbar navbar-inverse" role="banner">\\n            <div class="container">\\n                <div class="navbar-header">\\n                    <button type="button" class="navbar-toggle" data-toggle="collapse" data-target=".navbar-collapse">\\n                        <span class="sr-only">Toggle navigation</span>\\n                        <span class="icon-bar"></span>\\n                        <span class="icon-bar"></span>\\n                        <span class="icon-bar"></span>\\n                    </button>\\n                    <a class="navbar-brand" href="index.html">\\n                      <!-- <img src="images/logo.png" alt="logo"> -->\\n                      thecvroom\\n                    </a>\\n                </div>\\n                \', escape=False)\nif auth.is_logged_in():\n    response.write(\'\\n                <div class="collapse navbar-collapse navbar-right">\\n                \', escape=False)\n    response.write(auth.user_id\n    =auth.has_membership(auth.user_id, role=\'admin\'))\n    response.write(\'\\n                    <ul class="nav navbar-nav">\\n                        <li><a href="\', escape=False)\n    response.write(URL(\'default\',\'job_listings\'))\n    response.write(\'">Home</a></li>\\n                        <li class="dropdown">\\n                            <a href="#" class="dropdown-toggle" data-toggle="dropdown">Services <i class="fa fa-angle-down"></i></a>\\n                            <ul class="dropdown-menu">\\n                                <li><a href="\', escape=False)\n    response.write(URL(\'default\',\'resume_writing\'))\n    response.write(\'">Resume Writing</a></li>\\n                                <li><a href="\', escape=False)\n    response.write(URL(\'default\',\'hr_solutions\'))\n    response.write(\'">HR Solutions</a></li>\\n                            </ul>\\n                        </li>\\n                        \', escape=False)\n    if auth.has_membership(auth.user_id, role=\'admin\'):\n        response.write(\'\\n                        <li><a href="\', escape=False)\n        response.write(URL(\'default\',\'admin\'))\n        response.write(\'">Admin</a></li>\\n                        \', escape=False)\n        pass\n    response.write(\'\\n                        <li><a href="\', escape=False)\n    response.write(URL(\'default\', \'user\', args=[\'logout\']))\n    response.write(\'">Logout</a></li>\\n                    </ul>\\n                </div>\\n                \', escape=False)\nelse:\n    response.write(\'\\n                <div class="collapse navbar-collapse navbar-right">\\n                    <ul class="nav navbar-nav">\\n                        <li class="active"><a href="index.html">Home</a></li>\\n                        <li><a href="\', escape=False)\n    response.write(URL(\'default\',\'job_listings\'))\n    response.write(\'">Job Listings</a></li>\\n                        <li><a href="\', escape=False)\n    response.write(URL(\'default\',\'about_us\'))\n    response.write(\'">About Us</a></li>\\n                        <li class="dropdown">\\n                            <a href="#" class="dropdown-toggle" data-toggle="dropdown">Services <i class="fa fa-angle-down"></i></a>\\n                            <ul class="dropdown-menu">\\n                                <li><a href="\', escape=False)\n    response.write(URL(\'default\',\'resume_writing\'))\n    response.write(\'">Resume Writing</a></li>\\n                                <li><a href="\', escape=False)\n    response.write(URL(\'default\',\'hr_solutions\'))\n    response.write(\'">HR Solutions</a></li>\\n                            </ul>\\n                        </li>\\n                        <li class="dropdown">\\n                            <a href="#" class="dropdown-toggle" data-toggle="dropdown">Login <i class="fa fa-angle-down"></i></a>\\n                            <ul class="dropdown-menu">\\n                                <li><a href="\', escape=False)\n    response.write(URL(\'default\',\'login\'))\n    response.write(\'">Login</a></li>\\n                                <li><a href="\', escape=False)\n    response.write(URL(\'default\',\'register\'))\n    response.write(\'">Register</a></li>\\n                            </ul>\\n                        </li>                    \\n                    </ul>\\n                </div>\\n                \', escape=False)\n    pass\nresponse.write(\'\\n            </div><!--/.container-->\\n        </nav><!--/nav-->\\n    \\n    </header><!--/header-->\\n\\n    <!-- Masthead ===================================== -->    \\n    \', escape=False)\nresponse.write(\'\\n    \', escape=False)\nresponse.write(\'\\n    <!-- Main ========================================= -->\\n    <!-- Begin page content -->\\n    <div class="container-fluid main-container no-margin-padding">\\n\\n      <div class="col-md-12 no-margin-padding">\\n        \', escape=False)\nresponse.write(\'\\n        \', escape=False)\nresponse.write(\'\\n<style>\\nsection {\\n  padding: 70px 0px;\\n}\\n#resume-request {\\n  min-height: 100vh;\\n}\\n.form-card {\\n  padding: 20px;\\n  margin-bottom: 10px;\\n}\\nbutton {\\n  width: 100%;\\n}\\n</style>\\n\\n<section id="resume-request">\\n  <div class="container">\\n    <div class="wow fadeInDown">\\n      <ol class="breadcrumb">\\n        <li class="breadcrumb-item active">\\n          <a data-target="personal-info" href="#">Personal Information</a>\\n        </li>\\n        <li class="breadcrumb-item">\\n          <a data-target="experience" href="#">Professional Experiences</a>\\n        </li>\\n        <li class="breadcrumb-item">\\n          <a data-target="achievements" href="#">Education and Achievements</a>\\n        </li>\\n        <li class="breadcrumb-item">\\n          <a data-target="skills" href="#">Skills</a>\\n        </li>\\n      </ol>\\n      <form id="resume-request-form">\\n        <div id="breadcrumb-container">\\n          <div id="personal-info">\\n            <small>All information provided will be kept confidential. We will not disclose your personal information to a third party without your consent.</small>\\n            <div class="form-group">\\n              <label for="email" class="bmd-label-floating">First Name</label>\\n              <input type="text" class="form-control" id="first-name">\\n              <span class="bmd-help">First name</span>\\n            </div>\\n            <div class="form-group">\\n              <label for="email" class="bmd-label-floating">Last Name</label>\\n              <input type="text" class="form-control" id="last-name">\\n              <span class="bmd-help">Last name</span>\\n            </div>\\n            <div class="form-group">\\n              <label for="email" class="bmd-label-floating">Email address</label>\\n              <input type="email" class="form-control" id="email">\\n              <span class="bmd-help">Enter your email address</span>\\n            </div>\\n            <div class="form-group">\\n              <label>Gender</label>\\n              <div class="radio">\\n                <label>\\n                  <input type="radio" name="gender" value="male">\\n                  Male\\n                </label>\\n              </div>\\n              <div class="radio">\\n                <label>\\n                  <input type="radio" name="gender" value="female">\\n                  Female\\n                </label>\\n              </div>\\n            </div>\\n            <div class="form-group">\\n              <label for="phone-number" class="bmd-label-floating">Phone Number</label>\\n              <input type="text" class="form-control" id="phone-number">\\n              <span class="bmd-help">Contact telephone number</span>\\n            </div>\\n            <div class="form-group">\\n              <label for="address" class="bmd-label-floating">Address</label>\\n              <input type="text" class="form-control" id="address">\\n              <span class="bmd-help">Current address</span>\\n            </div>\\n            <div class="form-group">\\n              <label>LinkedIn Account</label>\\n              <div class="radio">\\n                <label>\\n                  <input type="radio" name="linkedin" value="true">\\n                  Yes\\n                </label>\\n              </div>\\n              <div class="radio">\\n                <label>\\n                  <input type="radio" name="linkedin" value="false">\\n                  No\\n                </label>\\n              </div>\\n            </div>\\n            <div class="form-group">\\n              <label>Marital Status</label>\\n              <div class="radio">\\n                <label>\\n                  <input type="radio" name="marital_status" value="single">\\n                  Single\\n                </label>\\n              </div>\\n              <div class="radio">\\n                <label>\\n                  <input type="radio" name="marital_status" value="married">\\n                  Married\\n                </label>\\n              </div>\\n              <div class="radio">\\n                <label>\\n                  <input type="radio" name="marital_status" value="divorced">\\n                  Divorced\\n                </label>\\n              </div>\\n            </div>\\n            <div class="form-group">\\n              <label>Faith</label>\\n              <div class="radio">\\n                <label>\\n                  <input type="radio" name="faith" value="true">\\n                  Buddhist\\n                </label>\\n              </div>\\n              <div class="radio">\\n                <label>\\n                  <input type="radio" name="faith" value="false">\\n                  Hinduism\\n                </label>\\n              </div>\\n              <div class="radio">\\n                <label>\\n                  <input type="radio" name="faith" value="false">\\n                  Christian\\n                </label>\\n              </div>\\n            </div>\\n            <div class="form-group">\\n              <label>Driving Licence</label>\\n              <div class="radio">\\n                <label>\\n                  <input type="radio" name="driving_licence" value="true">\\n                  Yes\\n                </label>\\n              </div>\\n              <div class="radio">\\n                <label>\\n                  <input type="radio" name="driving_licence" value="false">\\n                  No\\n                </label>\\n              </div>\\n            </div>\\n            <button class="btn btn-raised btn-primary" type="button" onclick="$(\\\'.breadcrumb\\\').find(\\\'[data-target=experience]\\\').click()">Next</button>\\n          </div>\\n          <div id="experience" class="hide">\\n            <div id="business-form">\\n              <button type="button" class="btn btn-raised btn-primary" id="add-business-experience">+ Add Company Experience</button>\\n            </div>\\n            <div id="student-form">\\n              <button type="button" class="btn btn-raised btn-primary" id="add-student-experience">+ Add Project Experience</button>\\n            </div>\\n            <button class="btn btn-raised btn-primary" type="button" onclick="$(\\\'.breadcrumb\\\').find(\\\'[data-target=achievements]\\\').click()">Next</button>\\n          </div>\\n          <div id="achievements" class="hide">\\n            <div id="degree-form">\\n              <button type="button" class="btn btn-raised btn-primary" id="add-degree">+ Add Degree</button>\\n            </div>\\n            <div id="certificate-form">\\n              <button type="button" class="btn btn-raised btn-primary" id="add-certificate">+ Add Certificate</button>\\n            </div>\\n            <div id="award-form">\\n              <button type="button" class="btn btn-raised btn-primary" id="add-award">+ Add Award</button>\\n            </div>\\n            <div id="volunteer-form">\\n              <button type="button" class="btn btn-raised btn-primary" id="add-volunteer">+ Add Volunteer</button>\\n            </div>\\n            <button class="btn btn-raised btn-primary" type="button" onclick="$(\\\'.breadcrumb\\\').find(\\\'[data-target=skills]\\\').click()">Next</button>\\n          </div>\\n          <div id="skills" class="hide">\\n            <div class="form-group">\\n              <label for="skills" class="bmd-label-floating">Technical Skills</label>\\n              <input type="text" class="form-control" id="skills">\\n              <span class="bmd-help">List of technical skills seperated by commas</span>\\n            </div>\\n            <div class="form-group">\\n              <label for="language" class="bmd-label-floating">Language</label>\\n              <textarea class="form-control" id="language"></textarea>\\n              <span class="bmd-help">Language proficiency</span>\\n            </div>\\n            <button class="btn btn-raised btn-primary" type="submit">Submit</button>\\n          </div>\\n        </div>\\n      </form>\\n    </div>\\n  </div>\\n</section>\\n\\n<script type="text/javascript">\\n\\n// for the professional experience\\nwindow.businessRecordCount = 0;\\nwindow.studentRecordCount = 0;\\n// for the edu and achievements\\nwindow.degreeRecordCount = 0;\\nwindow.certificateRecordCount = 0;\\nwindow.awardRecordCount = 0;\\nwindow.volunteerRecordCount = 0;\\n\\n\\nfunction removeElement(target, cardType) {\\n  target.remove();\\n  if (cardType === \\\'business\\\') {\\n    window.businessRecordCount -= 1;\\n  } else if (cardType === \\\'student\\\') {\\n    window.studentRecordCount -= 1;\\n  } else if (cardType === \\\'degree\\\') {\\n    window.degreeRecordCount -= 1;\\n  } else if (cardType === \\\'certificate\\\') {\\n    window.certificateRecordCount -= 1;\\n  } else if (cardType === \\\'award\\\') {\\n    window.awardRecordCount -= 1;\\n  } else {\\n    window.volunteerRecordCount -= 1;\\n  }\\n}\\n\\nfunction generateBusinessForm(target) {\\n  window.businessRecordCount += 1;\\n  var businessCardNo = \\\'business-card-\\\' + window.businessRecordCount,\\n      businessSectorTarget = \\\'business-sector-\\\' + window.businessRecordCount,\\n      businessPositionTarget = \\\'business-position-\\\' + window.businessRecordCount,\\n      businessDepartmentTarget = \\\'business-department-\\\' + window.businessRecordCount,\\n      businessPeriodFromTarget = \\\'business-period-from-\\\' + window.businessRecordCount,\\n      businessPeriodToTarget = \\\'business-period-to-\\\' + window.businessRecordCount\\n      businessDescriptionTarget = \\\'business-description-\\\' + window.businessRecordCount,\\n    sectorList = [\\\'Real Estate\\\', \\\'Advertisement\\\', \\\' Technology\\\', \\\'Marketing\\\', \\\'Education\\\', \\\'Consulting\\\', \\\' Agriculture\\\', \\\' Manufacturing\\\', \\\'Government\\\', \\\'NGO\\\', \\\'Export-import\\\', \\\'Electronic\\\', \\\'Finance\\\', \\\'Telecomunication\\\']\\n  target.prepend($(\\\'<div/>\\\', {\\n    class: \\\'card form-card\\\',\\n    id: businessCardNo,\\n    html: [$(\\\'<div/>\\\', {\\n      html: $(\\\'<a/>\\\', {\\n        html: \\\'x\\\',\\n        onclick: "removeElement($(\\\'#"+businessCardNo+"\\\'), \\\'business\\\')"\\n      })\\n    }),$(\\\'<div/>\\\', {\\n            class: \\\'form-group\\\',\\n            html: [$(\\\'<label/>\\\', {\\n                  for: businessSectorTarget,\\n                  class: \\\'bmd-label-floating\\\',\\n                  html: \\\'Sector\\\'\\n                }), $(\\\'<select/>\\\', {\\n                  class: \\\'form-control\\\',\\n                  id: businessSectorTarget,\\n                  html: $.map(sectorList, function(value, index){\\n                    return $(\\\'<option/>\\\', {\\n                      html: value\\n                    })\\n                  })\\n                })]\\n          }),$(\\\'<div/>\\\', {\\n            class: \\\'form-group\\\',\\n            html: [$(\\\'<label/>\\\', {\\n              for: businessPositionTarget,\\n              class: \\\'bmd-label-floating\\\',\\n              html: \\\'Position\\\'\\n            }), $(\\\'<input/>\\\', {\\n              class: \\\'form-control\\\',\\n              id: businessPositionTarget,\\n              html: $(\\\'<span/>\\\', {\\n                class: \\\'bmd-help\\\',\\n                html: \\\'Position that you worked as\\\'\\n              })\\n            })]\\n          }),$(\\\'<div/>\\\', {\\n            class: \\\'form-group\\\',\\n            html: [$(\\\'<label/>\\\', {\\n              for: businessDepartmentTarget,\\n              class: \\\'bmd-label-floating\\\',\\n              html: \\\'Department\\\'\\n            }), $(\\\'<input/>\\\', {\\n              class: \\\'form-control\\\',\\n              id: businessDepartmentTarget,\\n              html: $(\\\'<span/>\\\', {\\n                class: \\\'bmd-help\\\',\\n                html: \\\'Department that you worked at\\\'\\n              })\\n            })]\\n          }),$(\\\'<div/>\\\', {\\n            class: \\\'form-group\\\',\\n            html: [$(\\\'<label/>\\\', {\\n              for: businessPeriodFromTarget,\\n              class: \\\'bmd-label-floating\\\',\\n              html: \\\'Period From\\\'\\n            }), $(\\\'<input/>\\\', {\\n              class: \\\'form-control\\\',\\n              type: \\\'date\\\',\\n              id: businessPeriodFromTarget,\\n            })]\\n          }),$(\\\'<div/>\\\', {\\n            class: \\\'form-group\\\',\\n            html: [$(\\\'<label/>\\\', {\\n              for: businessPeriodToTarget,\\n              class: \\\'bmd-label-floating\\\',\\n              html: \\\'Period To\\\'\\n            }), $(\\\'<input/>\\\', {\\n              class: \\\'form-control\\\',\\n              type: \\\'date\\\',\\n              id: businessPeriodToTarget\\n            })]\\n          }),$(\\\'<div/>\\\', {\\n            class: \\\'form-group\\\',\\n            html: [$(\\\'<label/>\\\', {\\n              for: businessDepartmentTarget,\\n              class: \\\'bmd-label-floating\\\',\\n              html: \\\'Responsibilities\\\'\\n            }), $(\\\'<textarea/>\\\', {\\n              class: \\\'form-control\\\',\\n              id: businessDepartmentTarget,\\n              html: $(\\\'<span/>\\\', {\\n                class: \\\'bmd-help\\\',\\n                html: \\\'Briefly describe the responsibilities for the period\\\'\\n              })\\n            })]\\n          })]\\n  }))\\n}\\n\\nfunction generateStudentForm(target) {\\n  window.studentRecordCount += 1;\\n  var studentCardNo = \\\'student-card-\\\' + window.studentRecordCount,\\n      studentCourseTarget = \\\'student-course-\\\' + window.studentRecordCount,\\n      studentProjectTarget = \\\'student-project-\\\' + window.studentProjectCount\\n  target.prepend($(\\\'<div/>\\\', {\\n    class: \\\'card form-card\\\',\\n    id: studentCardNo,\\n    html: [$(\\\'<div/>\\\', {\\n      html: $(\\\'<a/>\\\', {\\n        html: \\\'x\\\',\\n        onclick: "removeElement($(\\\'#"+studentCardNo+"\\\'), \\\'student\\\')"\\n      })\\n    }),$(\\\'<div/>\\\', {\\n          class: \\\'form-group\\\',\\n          html: [$(\\\'<label/>\\\', {\\n            for: studentCourseTarget,\\n            class: \\\'bmd-label-floating\\\',\\n            html: \\\'Course Highlight\\\'\\n          }), $(\\\'<textarea/>\\\', {\\n            class: \\\'form-control\\\',\\n            id: studentCourseTarget,\\n            html: $(\\\'<span/>\\\', {\\n              class: \\\'bmd-help\\\',\\n              html: \\\'Briefly describe the course information\\\'\\n            })\\n          })]\\n        }),$(\\\'<div/>\\\', {\\n            class: \\\'form-group\\\',\\n            html: [$(\\\'<label/>\\\', {\\n              for: studentProjectTarget,\\n              class: \\\'bmd-label-floating\\\',\\n              html: \\\'Responsibilities\\\'\\n            }), $(\\\'<textarea/>\\\', {\\n              class: \\\'form-control\\\',\\n              id: studentProjectTarget,\\n              html: $(\\\'<span/>\\\', {\\n                class: \\\'bmd-help\\\',\\n                html: \\\'Briefly describe the responsibilities for the project\\\'\\n              })\\n            })]\\n          })]\\n  }))\\n}\\n\\nfunction generateDegreeForm(target) {\\n  window.degreeRecordCount += 1;\\n  var degreeCarddNo = \\\'degree-card-\\\' + window.degreeRecordCount,\\n      degreeTarget = \\\'degre-\\\' + window.degreeRecordCount\\n  target.prepend($(\\\'<div/>\\\', {\\n    class: \\\'card form-card\\\',\\n    id: degreeCarddNo,\\n    html: [$(\\\'<div/>\\\', {\\n      html: $(\\\'<a/>\\\', {\\n        html: \\\'x\\\',\\n        onclick: "removeElement($(\\\'#"+degreeCarddNo+"\\\'), \\\'degree\\\')"\\n      })\\n    }),$(\\\'<div/>\\\', {\\n          class: \\\'form-group\\\',\\n          html: [$(\\\'<label/>\\\', {\\n            for: degreeTarget,\\n            class: \\\'bmd-label-floating\\\',\\n            html: \\\'Degree\\\'\\n          }), $(\\\'<textarea/>\\\', {\\n            class: \\\'form-control\\\',\\n            id: degreeTarget,\\n            html: $(\\\'<span/>\\\', {\\n              class: \\\'bmd-help\\\',\\n              html: \\\'Name of degree you attend to\\\'\\n            })\\n          })]\\n        })]\\n  }))\\n}\\n\\nfunction generateCertificateForm(target) {\\n  window.certificateRecordCount += 1;\\n  var certificateCardNo = \\\'degree-card-\\\' + window.certificateRecordCount,\\n      certificateTarget = \\\'degre-\\\' + window.certificateRecordCount\\n  target.prepend($(\\\'<div/>\\\', {\\n    class: \\\'card form-card\\\',\\n    id: certificateCardNo,\\n    html: [$(\\\'<div/>\\\', {\\n      html: $(\\\'<a/>\\\', {\\n        html: \\\'x\\\',\\n        onclick: "removeElement($(\\\'#"+certificateCardNo+"\\\'), \\\'certificate\\\')"\\n      })\\n    }),$(\\\'<div/>\\\', {\\n          class: \\\'form-group\\\',\\n          html: [$(\\\'<label/>\\\', {\\n            for: certificateTarget,\\n            class: \\\'bmd-label-floating\\\',\\n            html: \\\'Degree\\\'\\n          }), $(\\\'<textarea/>\\\', {\\n            class: \\\'form-control\\\',\\n            id: certificateTarget,\\n            html: $(\\\'<span/>\\\', {\\n              class: \\\'bmd-help\\\',\\n              html: \\\'Name of certificate\\\'\\n            })\\n          })]\\n        })]\\n  }))\\n}\\n\\nfunction generateAwardForm(target) {\\n  window.awardRecordCount += 1;\\n  var awardCardNo = \\\'degree-card-\\\' + window.awardRecordCount,\\n      awardTarget = \\\'degre-\\\' + window.awardRecordCount\\n  target.prepend($(\\\'<div/>\\\', {\\n    class: \\\'card form-card\\\',\\n    id: awardCardNo,\\n    html: [$(\\\'<div/>\\\', {\\n      html: $(\\\'<a/>\\\', {\\n        html: \\\'x\\\',\\n        onclick: "removeElement($(\\\'#"+awardCardNo+"\\\'), \\\'award\\\')"\\n      })\\n    }),$(\\\'<div/>\\\', {\\n          class: \\\'form-group\\\',\\n          html: [$(\\\'<label/>\\\', {\\n            for: awardTarget,\\n            class: \\\'bmd-label-floating\\\',\\n            html: \\\'Degree\\\'\\n          }), $(\\\'<textarea/>\\\', {\\n            class: \\\'form-control\\\',\\n            id: awardTarget,\\n            html: $(\\\'<span/>\\\', {\\n              class: \\\'bmd-help\\\',\\n              html: \\\'Name of certificate\\\'\\n            })\\n          })]\\n        })]\\n  }))\\n}\\n\\nfunction generateVolunteerForm(target) {\\n  window.volunteerRecordCount += 1;\\n  var volunteerCardNo = \\\'degree-card-\\\' + window.volunteerRecordCount,\\n      volunteerTarget = \\\'degre-\\\' + window.volunteerRecordCount\\n  target.prepend($(\\\'<div/>\\\', {\\n    class: \\\'card form-card\\\',\\n    id: volunteerCardNo,\\n    html: [$(\\\'<div/>\\\', {\\n      html: $(\\\'<a/>\\\', {\\n        html: \\\'x\\\',\\n        onclick: "removeElement($(\\\'#"+volunteerCardNo+"\\\'), \\\'volunteer\\\')"\\n      })\\n    }),$(\\\'<div/>\\\', {\\n          class: \\\'form-group\\\',\\n          html: [$(\\\'<label/>\\\', {\\n            for: volunteerTarget,\\n            class: \\\'bmd-label-floating\\\',\\n            html: \\\'Degree\\\'\\n          }), $(\\\'<textarea/>\\\', {\\n            class: \\\'form-control\\\',\\n            id: volunteerTarget,\\n            html: $(\\\'<span/>\\\', {\\n              class: \\\'bmd-help\\\',\\n              html: \\\'Name of certificate\\\'\\n            })\\n          })]\\n        })]\\n  }))\\n}\\n\\nfunction showAlert(data) {\\n  $(\\\'.main-container\\\').prepend($(\\\'<div/>\\\', {\\n    class: \\\'alert alert-primary\\\',\\n    role: \\\'alert\\\',\\n    onclick: "$(\\\'.alert\\\').alert(\\\'close\\\')",\\n    html: data    \\n  }));\\n}\\n\\n$(document).ready(function(){\\n  $(\\\'.breadcrumb a\\\').on(\\\'click\\\', function(){\\n    var targetContainer = \\\'#\\\' + $(this).data(\\\'target\\\');\\n    // show parent and hide others\\n    $(this).parent().addClass(\\\'active\\\');\\n    $(this).parent().siblings().removeClass(\\\'active\\\');\\n    $(targetContainer).removeClass(\\\'hide\\\');\\n    $(targetContainer).siblings().addClass(\\\'hide\\\');\\n  })\\n  // added the event listeners\\n  $(\\\'#add-business-experience\\\').on(\\\'click\\\', function(){\\n    generateBusinessForm($(\\\'#business-form\\\'));\\n  })\\n  $(\\\'#add-student-experience\\\').on(\\\'click\\\', function(){\\n    generateStudentForm($(\\\'#student-form\\\'));\\n  })\\n  $(\\\'#add-degree\\\').on(\\\'click\\\', function(){\\n    generateDegreeForm($(\\\'#degree-form\\\'));\\n  })\\n  $(\\\'#add-certificate\\\').on(\\\'click\\\', function(){\\n    generateCertificateForm($(\\\'#certificate-form\\\'));\\n  })\\n  $(\\\'#add-award\\\').on(\\\'click\\\', function(){\\n    generateAwardForm($(\\\'#award-form\\\'));\\n  })\\n  $(\\\'#add-volunteer\\\').on(\\\'click\\\', function(){\\n    generateVolunteerForm($(\\\'#volunteer-form\\\'));\\n  })\\n  $(\\\'#resume-request-form\\\').on(\\\'submit\\\', function(event){\\n    event.preventDefault();\\n    showAlert(\\\'Request submitted, you will be contacted within 3 working days!\\\')\\n    console.log(\\\'submitted\\\')\\n  })\\n})\\n</script>\', escape=False)\nresponse.write(\'\\n        \', escape=False)\nresponse.write(\'\\n      </div>\\n\\n    </div>\\n   \\n    <!-- To Clear Float -->\\n    <div class="clear-float"></div>\\n    <!-- Footer -->\\n    <footer id="footer" class="midnight-blue">\\n        <div class="container">\\n            <div class="row">\\n                <div class="col-sm-6">\\n                    &copy; \', escape=False)\nresponse.write(request.now.year)\nresponse.write(\' <a target="_blank" href="http://www.thecvroom.com" title="Your HR Solution Provider">thecvroom</a>. All Rights Reserved.\\n                </div>\\n                <div class="col-sm-6">\\n                    <ul class="pull-right">\\n                        <li><a href="#">Home</a></li>\\n                        <li><a href="#">About Us</a></li>\\n                        <li><a href="#">Faq</a></li>\\n                        <li><a href="#">Contact Us</a></li>\\n                    </ul>\\n                </div>\\n            </div>\\n        </div>\\n    </footer><!--/#footer-->\\n    <!-- The javascript =============================== -->\\n    <script src="\', escape=False)\nresponse.write(URL(\'static\',\'js/bootstrap.min.js\'))\nresponse.write(\'"></script>\\n    <!-- Material Design -->\\n    <script src="\', escape=False)\nresponse.write(URL(\'static\',\'js/material.min.js\'))\nresponse.write(\'"></script>\\n    <script src="\', escape=False)\nresponse.write(URL(\'static\',\'js/ripples.min.js\'))\nresponse.write(\'"></script>\\n    <!-- <script src="\', escape=False)\nresponse.write(URL(\'static\',\'js/web2py-bootstrap3.js\'))\nresponse.write(\'"></script> -->\\n    \', escape=False)\nresponse.write(\'\\n    \', escape=False)\nif response.google_analytics_id:\n    response.write(\'\\n    <!-- Analytics ==================================== -->\\n    <script src="\', escape=False)\n    response.write(URL(\'static\',\'js/analytics.min.js\'))\n    response.write(\'"></script>\\n    <script type="text/javascript">\\n      analytics.initialize({\\n      \\\'Google Analytics\\\':{trackingId:\\\'\', escape=False)\n    response.write(response.google_analytics_id)\n    response.write("\'}\\n      });\\n    </script>\\n    ", escape=False)\n    pass\nresponse.write(\'\\n    <script>\\n      $(document).ready(function(){\\n        $.material.init();\\n      })\\n    </script>\\n  </body>\\n</html>\\n\', escape=False)'
p7
sS'snapshot'
p8
(dp9
S'exception'
p10
(dp11
S'__getslice__'
p12
S"<method-wrapper '__getslice__' of exceptions.SyntaxError object>"
p13
sS'text'
p14
S'\'<input type="radio" name="linkedin" value="true">\\n\''
p15
sS'__str__'
p16
S"<method-wrapper '__str__' of exceptions.SyntaxError object>"
p17
sS'__reduce__'
p18
S'<built-in method __reduce__ of exceptions.SyntaxError object>'
p19
sS'__dict__'
p20
S'{}'
p21
sS'__sizeof__'
p22
S'<built-in method __sizeof__ of exceptions.SyntaxError object>'
p23
sS'message'
p24
S"''"
p25
sS'__init__'
p26
S"<method-wrapper '__init__' of exceptions.SyntaxError object>"
p27
sS'__setattr__'
p28
S"<method-wrapper '__setattr__' of exceptions.SyntaxError object>"
p29
sS'__reduce_ex__'
p30
S'<built-in method __reduce_ex__ of exceptions.SyntaxError object>'
p31
sS'__new__'
p32
S'<built-in method __new__ of type object>'
p33
sS'__format__'
p34
S'<built-in method __format__ of exceptions.SyntaxError object>'
p35
sS'__class__'
p36
S"<type 'exceptions.SyntaxError'>"
p37
sS'filename'
p38
S"'/Users/myo/Documents/Work/web2py/web2py/applications/thecvroom/views/default/resume_writing.html'"
p39
sS'lineno'
p40
S'83'
p41
sS'msg'
p42
S'"keyword can\'t be an expression"'
p43
sS'__doc__'
p44
S"'Invalid syntax.'"
p45
sS'__getitem__'
p46
S"<method-wrapper '__getitem__' of exceptions.SyntaxError object>"
p47
sS'__setstate__'
p48
S'<built-in method __setstate__ of exceptions.SyntaxError object>'
p49
sS'__getattribute__'
p50
S"<method-wrapper '__getattribute__' of exceptions.SyntaxError object>"
p51
sS'print_file_and_line'
p52
S'None'
p53
sS'args'
p54
S'("keyword can\'t be an expression", (\'/Users/myo/Documents/Work/web2py/web2py/applications/thecvroom/views/default/resume_writing.html\', 83, None, \'<input type="radio" name="linkedin" value="true">\\n\'))'
p55
sS'__subclasshook__'
p56
S'<built-in method __subclasshook__ of type object>'
p57
sS'offset'
p58
S'None'
p59
sS'__unicode__'
p60
S'<built-in method __unicode__ of exceptions.SyntaxError object>'
p61
sS'__delattr__'
p62
S"<method-wrapper '__delattr__' of exceptions.SyntaxError object>"
p63
sS'__repr__'
p64
S"<method-wrapper '__repr__' of exceptions.SyntaxError object>"
p65
sS'__hash__'
p66
S"<method-wrapper '__hash__' of exceptions.SyntaxError object>"
p67
ssS'evalue'
p68
S"keyword can't be an expression (resume_writing.html, line 83)"
p69
sS'request'
p70
cgluon.html
XML_unpickle
p71
(S'sXY\x00\x00<div><table><tr><td style="font-weight:bold;vertical-align:top;">ajax</td><td style="vertical-align:top;">:</td><td><div>False</div></td></tr><tr><td style="font-weight:bold;vertical-align:top;">application</td><td style="vertical-align:top;">:</td><td><div>thecvroom</div></td></tr><tr><td style="font-weight:bold;vertical-align:top;">args</td><td style="vertical-align:top;">:</td><td><div><table></table></div></td></tr><tr><td style="font-weight:bold;vertical-align:top;">cid</td><td style="vertical-align:top;">:</td><td><div>None</div></td></tr><tr><td style="font-weight:bold;vertical-align:top;">client</td><td style="vertical-align:top;">:</td><td><div>127.0.0.1</div></td></tr><tr><td style="font-weight:bold;vertical-align:top;">controller</td><td style="vertical-align:top;">:</td><td><div>default</div></td></tr><tr><td style="font-weight:bold;vertical-align:top;">cookies</td><td style="vertical-align:top;">:</td><td><div><table><tr><td style="font-weight:bold;vertical-align:top;">session_id_admin</td><td style="vertical-align:top;">:</td><td><div>127.0.0.1-ccfbe0dd-c49c-47cf-868b-d07d103b97e2<table><tr><td style="font-weight:bold;vertical-align:top;">comment</td><td style="vertical-align:top;">:</td><td><div></div></td></tr><tr><td style="font-weight:bold;vertical-align:top;">domain</td><td style="vertical-align:top;">:</td><td><div></div></td></tr><tr><td style="font-weight:bold;vertical-align:top;">expires</td><td style="vertical-align:top;">:</td><td><div></div></td></tr><tr><td style="font-weight:bold;vertical-align:top;">httponly</td><td style="vertical-align:top;">:</td><td><div></div></td></tr><tr><td style="font-weight:bold;vertical-align:top;">max-age</td><td style="vertical-align:top;">:</td><td><div></div></td></tr><tr><td style="font-weight:bold;vertical-align:top;">path</td><td style="vertical-align:top;">:</td><td><div></div></td></tr><tr><td style="font-weight:bold;vertical-align:top;">secure</td><td style="vertical-align:top;">:</td><td><div></div></td></tr><tr><td style="font-weight:bold;vertical-align:top;">version</td><td style="vertical-align:top;">:</td><td><div></div></td></tr></table></div></td></tr><tr><td style="font-weight:bold;vertical-align:top;">session_id_thecvroom</td><td style="vertical-align:top;">:</td><td><div>127.0.0.1-106ca69d-e44e-4db6-96e3-dedb7339347a<table><tr><td style="font-weight:bold;vertical-align:top;">comment</td><td style="vertical-align:top;">:</td><td><div></div></td></tr><tr><td style="font-weight:bold;vertical-align:top;">domain</td><td style="vertical-align:top;">:</td><td><div></div></td></tr><tr><td style="font-weight:bold;vertical-align:top;">expires</td><td style="vertical-align:top;">:</td><td><div></div></td></tr><tr><td style="font-weight:bold;vertical-align:top;">httponly</td><td style="vertical-align:top;">:</td><td><div></div></td></tr><tr><td style="font-weight:bold;vertical-align:top;">max-age</td><td style="vertical-align:top;">:</td><td><div></div></td></tr><tr><td style="font-weight:bold;vertical-align:top;">path</td><td style="vertical-align:top;">:</td><td><div></div></td></tr><tr><td style="font-weight:bold;vertical-align:top;">secure</td><td style="vertical-align:top;">:</td><td><div></div></td></tr><tr><td style="font-weight:bold;vertical-align:top;">version</td><td style="vertical-align:top;">:</td><td><div></div></td></tr></table></div></td></tr></table></div></td></tr><tr><td style="font-weight:bold;vertical-align:top;">env</td><td style="vertical-align:top;">:</td><td><div><table><tr><td style="font-weight:bold;vertical-align:top;">HTTP_ACCEPT</td><td style="vertical-align:top;">:</td><td><div>text/html,application/xhtml+xml,application/xml;q=0.9,image/webp,image/apng,*/*;q=0.8</div></td></tr><tr><td style="font-weight:bold;vertical-align:top;">HTTP_ACCEPT_ENCODING</td><td style="vertical-align:top;">:</td><td><div>gzip, deflate, br</div></td></tr><tr><td style="font-weight:bold;vertical-align:top;">HTTP_ACCEPT_LANGUAGE</td><td style="vertical-align:top;">:</td><td><div>en-GB,en-US;q=0.8,en;q=0.6</div></td></tr><tr><td style="font-weight:bold;vertical-align:top;">HTTP_CACHE_CONTROL</td><td style="vertical-align:top;">:</td><td><div>max-age=0</div></td></tr><tr><td style="font-weight:bold;vertical-align:top;">HTTP_CONNECTION</td><td style="vertical-align:top;">:</td><td><div>keep-alive</div></td></tr><tr><td style="font-weight:bold;vertical-align:top;">HTTP_COOKIE</td><td style="vertical-align:top;">:</td><td><div>session_id_admin=127.0.0.1-ccfbe0dd-c49c-47cf-868b-d07d103b97e2; session_id_thecvroom=127.0.0.1-106ca69d-e44e-4db6-96e3-dedb7339347a</div></td></tr><tr><td style="font-weight:bold;vertical-align:top;">HTTP_HOST</td><td style="vertical-align:top;">:</td><td><div>localhost:8000</div></td></tr><tr><td style="font-weight:bold;vertical-align:top;">HTTP_REFERER</td><td style="vertical-align:top;">:</td><td><div>http://localhost:8000/thecvroom/default/resume_writing</div></td></tr><tr><td style="font-weight:bold;vertical-align:top;">HTTP_UPGRADE_INSECURE_REQUESTS</td><td style="vertical-align:top;">:</td><td><div>1</div></td></tr><tr><td style="font-weight:bold;vertical-align:top;">HTTP_USER_AGENT</td><td style="vertical-align:top;">:</td><td><div>Mozilla/5.0 (Macintosh; Intel Mac OS X 10_12_6) AppleWebKit/537.36 (KHTML, like Gecko) Chrome/60.0.3112.113 Safari/537.36</div></td></tr><tr><td style="font-weight:bold;vertical-align:top;">PATH_INFO</td><td style="vertical-align:top;">:</td><td><div>/thecvroom/default/resume_writing</div></td></tr><tr><td style="font-weight:bold;vertical-align:top;">QUERY_STRING</td><td style="vertical-align:top;">:</td><td><div></div></td></tr><tr><td style="font-weight:bold;vertical-align:top;">REMOTE_ADDR</td><td style="vertical-align:top;">:</td><td><div>127.0.0.1</div></td></tr><tr><td style="font-weight:bold;vertical-align:top;">REMOTE_PORT</td><td style="vertical-align:top;">:</td><td><div>54898</div></td></tr><tr><td style="font-weight:bold;vertical-align:top;">REQUEST_METHOD</td><td style="vertical-align:top;">:</td><td><div>GET</div></td></tr><tr><td style="font-weight:bold;vertical-align:top;">SCRIPT_NAME</td><td style="vertical-align:top;">:</td><td><div></div></td></tr><tr><td style="font-weight:bold;vertical-align:top;">SERVER_NAME</td><td style="vertical-align:top;">:</td><td><div>Kyaws-MBP</div></td></tr><tr><td style="font-weight:bold;vertical-align:top;">SERVER_PORT</td><td style="vertical-align:top;">:</td><td><div>8000</div></td></tr><tr><td style="font-weight:bold;vertical-align:top;">SERVER_PROTOCOL</td><td style="vertical-align:top;">:</td><td><div>HTTP/1.1</div></td></tr><tr><td style="font-weight:bold;vertical-align:top;">SERVER_SOFTWARE</td><td style="vertical-align:top;">:</td><td><div>Rocket 1.2.6</div></td></tr><tr><td style="font-weight:bold;vertical-align:top;">app_folders</td><td style="vertical-align:top;">:</td><td><div>set([&#x27;/Users/myo/Documents/Work/web2py/web2py/applications/thecvroom/&#x27;, &#x27;/Users/myo/Documents/Work/web2py/web2py/applications/admin/&#x27;])</div></td></tr><tr><td style="font-weight:bold;vertical-align:top;">applications_parent</td><td style="vertical-align:top;">:</td><td><div>/Users/myo/Documents/Work/web2py/web2py</div></td></tr><tr><td style="font-weight:bold;vertical-align:top;">cmd_args</td><td style="vertical-align:top;">:</td><td><div><table></table></div></td></tr><tr><td style="font-weight:bold;vertical-align:top;">cmd_options</td><td style="vertical-align:top;">:</td><td><div>&lt;Values at 0x1034293b0: {&#x27;verbose&#x27;: False, &#x27;ip&#x27;: &#x27;localhost&#x27;, &#x27;debuglevel&#x27;: 30, &#x27;with_scheduler&#x27;: False, &#x27;shutdown_timeout&#x27;: 5, &#x27;taskbar&#x27;: False, &#x27;with_coverage&#x27;: False, &#x27;pid_filename&#x27;: &#x27;httpserver.pid&#x27;, &#x27;maxthreads&#x27;: None, &#x27;softcron&#x27;: False, &#x27;server_name&#x27;: &#x27;Kyaws-MBP&#x27;, &#x27;bpython&#x27;: False, &#x27;nogui&#x27;: False, &#x27;port&#x27;: 8000, &#x27;print_errors&#x27;: False, &#x27;extcron&#x27;: False, &#x27;runcron&#x27;: False, &#x27;run_system_tests&#x27;: False, &#x27;test&#x27;: None, &#x27;folder&#x27;: &#x27;/Users/myo/Documents/Work/web2py/web2py&#x27;, &#x27;config&#x27;: &#x27;&#x27;, &#x27;minthreads&#x27;: None, &#x27;shell&#x27;: None, &#x27;run&#x27;: &#x27;&#x27;, &#x27;log_filename&#x27;: &#x27;httpserver.log&#x27;, &#x27;profiler_dir&#x27;: None, &#x27;args&#x27;: [&#x27;&#x27;], &#x27;socket_timeout&#x27;: 5, &#x27;ssl_ca_certificate&#x27;: None, &#x27;scheduler&#x27;: None, &#x27;interfaces&#x27;: None, &#x27;ssl_private_key&#x27;: &#x27;&#x27;, &#x27;gae&#x27;: None, &#x27;password&#x27;: &#x27;******&#x27;, &#x27;request_queue_size&#x27;: 5, &#x27;ssl_certificate&#x27;: &#x27;&#x27;, &#x27;cronjob&#x27;: False, &#x27;numthreads&#x27;: None, &#x27;quiet&#x27;: False, &#x27;import_models&#x27;: False, &#x27;timeout&#x27;: 10, &#x27;plain&#x27;: False, &#x27;nobanner&#x27;: False}&gt;</div></td></tr><tr><td style="font-weight:bold;vertical-align:top;">db_sessions</td><td style="vertical-align:top;">:</td><td><div>set([])</div></td></tr><tr><td style="font-weight:bold;vertical-align:top;">debugging</td><td style="vertical-align:top;">:</td><td><div>False</div></td></tr><tr><td style="font-weight:bold;vertical-align:top;">gluon_parent</td><td style="vertical-align:top;">:</td><td><div>/Users/myo/Documents/Work/web2py/web2py</div></td></tr><tr><td style="font-weight:bold;vertical-align:top;">http_accept</td><td style="vertical-align:top;">:</td><td><div>text/html,application/xhtml+xml,application/xml;q=0.9,image/webp,image/apng,*/*;q=0.8</div></td></tr><tr><td style="font-weight:bold;vertical-align:top;">http_accept_encoding</td><td style="vertical-align:top;">:</td><td><div>gzip, deflate, br</div></td></tr><tr><td style="font-weight:bold;vertical-align:top;">http_accept_language</td><td style="vertical-align:top;">:</td><td><div>en-GB,en-US;q=0.8,en;q=0.6</div></td></tr><tr><td style="font-weight:bold;vertical-align:top;">http_cache_control</td><td style="vertical-align:top;">:</td><td><div>max-age=0</div></td></tr><tr><td style="font-weight:bold;vertical-align:top;">http_connection</td><td style="vertical-align:top;">:</td><td><div>keep-alive</div></td></tr><tr><td style="font-weight:bold;vertical-align:top;">http_cookie</td><td style="vertical-align:top;">:</td><td><div>session_id_admin=127.0.0.1-ccfbe0dd-c49c-47cf-868b-d07d103b97e2; session_id_thecvroom=127.0.0.1-106ca69d-e44e-4db6-96e3-dedb7339347a</div></td></tr><tr><td style="font-weight:bold;vertical-align:top;">http_host</td><td style="vertical-align:top;">:</td><td><div>localhost:8000</div></td></tr><tr><td style="font-weight:bold;vertical-align:top;">http_referer</td><td style="vertical-align:top;">:</td><td><div>http://localhost:8000/thecvroom/default/resume_writing</div></td></tr><tr><td style="font-weight:bold;vertical-align:top;">http_upgrade_insecure_requests</td><td style="vertical-align:top;">:</td><td><div>1</div></td></tr><tr><td style="font-weight:bold;vertical-align:top;">http_user_agent</td><td style="vertical-align:top;">:</td><td><div>Mozilla/5.0 (Macintosh; Intel Mac OS X 10_12_6) AppleWebKit/537.36 (KHTML, like Gecko) Chrome/60.0.3112.113 Safari/537.36</div></td></tr><tr><td style="font-weight:bold;vertical-align:top;">is_jython</td><td style="vertical-align:top;">:</td><td><div>False</div></td></tr><tr><td style="font-weight:bold;vertical-align:top;">is_py2</td><td style="vertical-align:top;">:</td><td><div>True</div></td></tr><tr><td style="font-weight:bold;vertical-align:top;">is_pypy</td><td style="vertical-align:top;">:</td><td><div>False</div></td></tr><tr><td style="font-weight:bold;vertical-align:top;">is_source</td><td style="vertical-align:top;">:</td><td><div>True</div></td></tr><tr><td style="font-weight:bold;vertical-align:top;">local_hosts</td><td style="vertical-align:top;">:</td><td><div><table><tr><td><div>::ffff:127.0.0.1</div></td></tr><tr><td><div>::1</div></td></tr><tr><td><div>41.1.168.192.in-addr.arpa</div></td></tr><tr><td><div>192.168.1.41</div></td></tr><tr><td><div>Kyaws-MBP</div></td></tr><tr><td><div>127.0.0.1</div></td></tr></table></div></td></tr><tr><td style="font-weight:bold;vertical-align:top;">path_info</td><td style="vertical-align:top;">:</td><td><div>/thecvroom/default/resume_writing</div></td></tr><tr><td style="font-weight:bold;vertical-align:top;">query_string</td><td style="vertical-align:top;">:</td><td><div></div></td></tr><tr><td style="font-weight:bold;vertical-align:top;">remote_addr</td><td style="vertical-align:top;">:</td><td><div>127.0.0.1</div></td></tr><tr><td style="font-weight:bold;vertical-align:top;">remote_port</td><td style="vertical-align:top;">:</td><td><div>54898</div></td></tr><tr><td style="font-weight:bold;vertical-align:top;">request_method</td><td style="vertical-align:top;">:</td><td><div>GET</div></td></tr><tr><td style="font-weight:bold;vertical-align:top;">request_uri</td><td style="vertical-align:top;">:</td><td><div>/thecvroom/default/resume_writing</div></td></tr><tr><td style="font-weight:bold;vertical-align:top;">script_name</td><td style="vertical-align:top;">:</td><td><div></div></td></tr><tr><td style="font-weight:bold;vertical-align:top;">server_name</td><td style="vertical-align:top;">:</td><td><div>Kyaws-MBP</div></td></tr><tr><td style="font-weight:bold;vertical-align:top;">server_port</td><td style="vertical-align:top;">:</td><td><div>8000</div></td></tr><tr><td style="font-weight:bold;vertical-align:top;">server_protocol</td><td style="vertical-align:top;">:</td><td><div>HTTP/1.1</div></td></tr><tr><td style="font-weight:bold;vertical-align:top;">server_software</td><td style="vertical-align:top;">:</td><td><div>Rocket 1.2.6</div></td></tr><tr><td style="font-weight:bold;vertical-align:top;">web2py_path</td><td style="vertical-align:top;">:</td><td><div>/Users/myo/Documents/Work/web2py/web2py</div></td></tr><tr><td style="font-weight:bold;vertical-align:top;">web2py_version</td><td style="vertical-align:top;">:</td><td><div>2.14.6-stable+timestamp.2016.05.09.19.18.48</div></td></tr><tr><td style="font-weight:bold;vertical-align:top;">wsgi.errors</td><td style="vertical-align:top;">:</td><td><div>&lt;open file &#x27;&lt;stderr&gt;&#x27;, mode &#x27;w&#x27; at 0x101cb91e0&gt;</div></td></tr><tr><td style="font-weight:bold;vertical-align:top;">wsgi.file_wrapper</td><td style="vertical-align:top;">:</td><td><div>&lt;class wsgiref.util.FileWrapper at 0x102bcc668&gt;</div></td></tr><tr><td style="font-weight:bold;vertical-align:top;">wsgi.input</td><td style="vertical-align:top;">:</td><td><div>&lt;socket._fileobject object at 0x1039b7c50&gt;</div></td></tr><tr><td style="font-weight:bold;vertical-align:top;">wsgi.multiprocess</td><td style="vertical-align:top;">:</td><td><div>False</div></td></tr><tr><td style="font-weight:bold;vertical-align:top;">wsgi.multithread</td><td style="vertical-align:top;">:</td><td><div>True</div></td></tr><tr><td style="font-weight:bold;vertical-align:top;">wsgi.run_once</td><td style="vertical-align:top;">:</td><td><div>False</div></td></tr><tr><td style="font-weight:bold;vertical-align:top;">wsgi.url_scheme</td><td style="vertical-align:top;">:</td><td><div>http</div></td></tr><tr><td style="font-weight:bold;vertical-align:top;">wsgi.version</td><td style="vertical-align:top;">:</td><td><div><table><tr><td><div>1</div></td></tr><tr><td><div>0</div></td></tr></table></div></td></tr><tr><td style="font-weight:bold;vertical-align:top;">wsgi_errors</td><td style="vertical-align:top;">:</td><td><div>&lt;open file &#x27;&lt;stderr&gt;&#x27;, mode &#x27;w&#x27; at 0x101cb91e0&gt;</div></td></tr><tr><td style="font-weight:bold;vertical-align:top;">wsgi_file_wrapper</td><td style="vertical-align:top;">:</td><td><div>&lt;class wsgiref.util.FileWrapper at 0x102bcc668&gt;</div></td></tr><tr><td style="font-weight:bold;vertical-align:top;">wsgi_input</td><td style="vertical-align:top;">:</td><td><div>&lt;socket._fileobject object at 0x1039b7c50&gt;</div></td></tr><tr><td style="font-weight:bold;vertical-align:top;">wsgi_multiprocess</td><td style="vertical-align:top;">:</td><td><div>False</div></td></tr><tr><td style="font-weight:bold;vertical-align:top;">wsgi_multithread</td><td style="vertical-align:top;">:</td><td><div>True</div></td></tr><tr><td style="font-weight:bold;vertical-align:top;">wsgi_run_once</td><td style="vertical-align:top;">:</td><td><div>False</div></td></tr><tr><td style="font-weight:bold;vertical-align:top;">wsgi_url_scheme</td><td style="vertical-align:top;">:</td><td><div>http</div></td></tr><tr><td style="font-weight:bold;vertical-align:top;">wsgi_version</td><td style="vertical-align:top;">:</td><td><div><table><tr><td><div>1</div></td></tr><tr><td><div>0</div></td></tr></table></div></td></tr></table></div></td></tr><tr><td style="font-weight:bold;vertical-align:top;">extension</td><td style="vertical-align:top;">:</td><td><div>html</div></td></tr><tr><td style="font-weight:bold;vertical-align:top;">folder</td><td style="vertical-align:top;">:</td><td><div>/Users/myo/Documents/Work/web2py/web2py/applications/thecvroom/</div></td></tr><tr><td style="font-weight:bold;vertical-align:top;">function</td><td style="vertical-align:top;">:</td><td><div>resume_writing</div></td></tr><tr><td style="font-weight:bold;vertical-align:top;">global_settings</td><td style="vertical-align:top;">:</td><td><div><table><tr><td style="font-weight:bold;vertical-align:top;">app_folders</td><td style="vertical-align:top;">:</td><td><div>set([&#x27;/Users/myo/Documents/Work/web2py/web2py/applications/thecvroom/&#x27;, &#x27;/Users/myo/Documents/Work/web2py/web2py/applications/admin/&#x27;])</div></td></tr><tr><td style="font-weight:bold;vertical-align:top;">applications_parent</td><td style="vertical-align:top;">:</td><td><div>/Users/myo/Documents/Work/web2py/web2py</div></td></tr><tr><td style="font-weight:bold;vertical-align:top;">cmd_args</td><td style="vertical-align:top;">:</td><td><div><table></table></div></td></tr><tr><td style="font-weight:bold;vertical-align:top;">cmd_options</td><td style="vertical-align:top;">:</td><td><div>&lt;Values at 0x1034293b0: {&#x27;verbose&#x27;: False, &#x27;ip&#x27;: &#x27;localhost&#x27;, &#x27;debuglevel&#x27;: 30, &#x27;with_scheduler&#x27;: False, &#x27;shutdown_timeout&#x27;: 5, &#x27;taskbar&#x27;: False, &#x27;with_coverage&#x27;: False, &#x27;pid_filename&#x27;: &#x27;httpserver.pid&#x27;, &#x27;maxthreads&#x27;: None, &#x27;softcron&#x27;: False, &#x27;server_name&#x27;: &#x27;Kyaws-MBP&#x27;, &#x27;bpython&#x27;: False, &#x27;nogui&#x27;: False, &#x27;port&#x27;: 8000, &#x27;print_errors&#x27;: False, &#x27;extcron&#x27;: False, &#x27;runcron&#x27;: False, &#x27;run_system_tests&#x27;: False, &#x27;test&#x27;: None, &#x27;folder&#x27;: &#x27;/Users/myo/Documents/Work/web2py/web2py&#x27;, &#x27;config&#x27;: &#x27;&#x27;, &#x27;minthreads&#x27;: None, &#x27;shell&#x27;: None, &#x27;run&#x27;: &#x27;&#x27;, &#x27;log_filename&#x27;: &#x27;httpserver.log&#x27;, &#x27;profiler_dir&#x27;: None, &#x27;args&#x27;: [&#x27;&#x27;], &#x27;socket_timeout&#x27;: 5, &#x27;ssl_ca_certificate&#x27;: None, &#x27;scheduler&#x27;: None, &#x27;interfaces&#x27;: None, &#x27;ssl_private_key&#x27;: &#x27;&#x27;, &#x27;gae&#x27;: None, &#x27;password&#x27;: &#x27;******&#x27;, &#x27;request_queue_size&#x27;: 5, &#x27;ssl_certificate&#x27;: &#x27;&#x27;, &#x27;cronjob&#x27;: False, &#x27;numthreads&#x27;: None, &#x27;quiet&#x27;: False, &#x27;import_models&#x27;: False, &#x27;timeout&#x27;: 10, &#x27;plain&#x27;: False, &#x27;nobanner&#x27;: False}&gt;</div></td></tr><tr><td style="font-weight:bold;vertical-align:top;">db_sessions</td><td style="vertical-align:top;">:</td><td><div>set([])</div></td></tr><tr><td style="font-weight:bold;vertical-align:top;">debugging</td><td style="vertical-align:top;">:</td><td><div>False</div></td></tr><tr><td style="font-weight:bold;vertical-align:top;">gluon_parent</td><td style="vertical-align:top;">:</td><td><div>/Users/myo/Documents/Work/web2py/web2py</div></td></tr><tr><td style="font-weight:bold;vertical-align:top;">is_jython</td><td style="vertical-align:top;">:</td><td><div>False</div></td></tr><tr><td style="font-weight:bold;vertical-align:top;">is_py2</td><td style="vertical-align:top;">:</td><td><div>True</div></td></tr><tr><td style="font-weight:bold;vertical-align:top;">is_pypy</td><td style="vertical-align:top;">:</td><td><div>False</div></td></tr><tr><td style="font-weight:bold;vertical-align:top;">is_source</td><td style="vertical-align:top;">:</td><td><div>True</div></td></tr><tr><td style="font-weight:bold;vertical-align:top;">local_hosts</td><td style="vertical-align:top;">:</td><td><div><table><tr><td><div>::ffff:127.0.0.1</div></td></tr><tr><td><div>::1</div></td></tr><tr><td><div>41.1.168.192.in-addr.arpa</div></td></tr><tr><td><div>192.168.1.41</div></td></tr><tr><td><div>Kyaws-MBP</div></td></tr><tr><td><div>127.0.0.1</div></td></tr></table></div></td></tr><tr><td style="font-weight:bold;vertical-align:top;">web2py_version</td><td style="vertical-align:top;">:</td><td><div>2.14.6-stable+timestamp.2016.05.09.19.18.48</div></td></tr></table></div></td></tr><tr><td style="font-weight:bold;vertical-align:top;">is_https</td><td style="vertical-align:top;">:</td><td><div>False</div></td></tr><tr><td style="font-weight:bold;vertical-align:top;">is_local</td><td style="vertical-align:top;">:</td><td><div>True</div></td></tr><tr><td style="font-weight:bold;vertical-align:top;">is_restful</td><td style="vertical-align:top;">:</td><td><div>False</div></td></tr><tr><td style="font-weight:bold;vertical-align:top;">is_scheduler</td><td style="vertical-align:top;">:</td><td><div>False</div></td></tr><tr><td style="font-weight:bold;vertical-align:top;">is_shell</td><td style="vertical-align:top;">:</td><td><div>False</div></td></tr><tr><td style="font-weight:bold;vertical-align:top;">now</td><td style="vertical-align:top;">:</td><td><div>datetime.datetime(2017, 9, 4, 1, 16, 4, 416174)</div></td></tr><tr><td style="font-weight:bold;vertical-align:top;">raw_args</td><td style="vertical-align:top;">:</td><td><div></div></td></tr><tr><td style="font-weight:bold;vertical-align:top;">raw_extension</td><td style="vertical-align:top;">:</td><td><div>None</div></td></tr><tr><td style="font-weight:bold;vertical-align:top;">url</td><td style="vertical-align:top;">:</td><td><div>/thecvroom/default/resume_writing</div></td></tr><tr><td style="font-weight:bold;vertical-align:top;">utcnow</td><td style="vertical-align:top;">:</td><td><div>datetime.datetime(2017, 9, 3, 17, 16, 4, 416182)</div></td></tr><tr><td style="font-weight:bold;vertical-align:top;">wsgi</td><td style="vertical-align:top;">:</td><td><div>&lt;gluon.main.LazyWSGI object at 0x1041f6f90&gt;</div></td></tr></table></div>'
tRp72
sS'frames'
p73
(lp74
(dp75
S'file'
p76
S'/Users/myo/Documents/Work/web2py/web2py/gluon/restricted.py'
p77
sS'dump'
p78
(dp79
S'code'
p80
S'r"response.write(\'<!DOCTYPE html>\\n<!--[if (gt IE ...  </script>\\n  </body>\\n</html>\\n\', escape=False)"'
p81
sS'layer'
p82
S"'/Users/myo/Documents/Work/web2py/web2py/applications/thecvroom/views/default/resume_writing.html'"
p83
sS'global compile2'
p84
S'<function compile2>'
p85
sS'ccode'
p86
S'undefined'
p87
ssS'lnum'
p88
I219
sS'lines'
p89
(dp90
I214
S"    environment['__name__'] = '__restricted__'"
p91
sI215
S'    try:'
p92
sI216
S'        if isinstance(code, types.CodeType):'
p93
sI217
S'            ccode = code'
p94
sI218
S'        else:'
p95
sI219
S'            ccode = compile2(code, layer)'
p96
sI220
S'        exec(ccode, environment)'
p97
sI221
S'    except HTTP:'
p98
sI222
S'        raise'
p99
sI223
S'    except RestrictedError:'
p100
ssS'call'
p101
S'(code=r"response.write(\'<!DOCTYPE html>\\n<!--[if (gt IE ...  </script>\\n  </body>\\n</html>\\n\', escape=False)", environment={\'A\': <class \'gluon.html.A\'>, \'ANY_OF\': <class \'gluon.validators.ANY_OF\'>, \'ASSIGNJS\': <function ASSIGNJS>, \'AppConfig\': <function AppConfig>, \'Auth\': <class \'gluon.tools.Auth\'>, \'B\': <class \'gluon.html.B\'>, \'BEAUTIFY\': <class \'gluon.html.BEAUTIFY\'>, \'BODY\': <class \'gluon.html.BODY\'>, \'BR\': <class \'gluon.html.BR\'>, \'BUTTON\': <class \'gluon.html.BUTTON\'>, ...}, layer=\'/Users/myo/Documents/Work/web2py/web2py/applications/thecvroom/views/default/resume_writing.html\')'
p102
sS'func'
p103
S'restricted'
p104
sa(dp105
g76
S'/Users/myo/Documents/Work/web2py/web2py/gluon/restricted.py'
p106
sg78
(dp107
S'builtincompile'
p108
S'<built-in function compile>'
p109
sS'code'
p110
S'r"response.write(\'<!DOCTYPE html>\\n<!--[if (gt IE ...  </script>\\n  </body>\\n</html>\\n\', escape=False)"'
p111
sS'code.rstrip'
p112
S'<built-in method rstrip of str object>'
p113
sS'layer'
p114
S"'/Users/myo/Documents/Work/web2py/web2py/applications/thecvroom/views/default/resume_writing.html'"
p115
ssg88
I202
sg89
(dp116
I197
S'            output = ""'
p117
sI198
S'        return output'
p118
sI199
S''
sI200
S''
sI201
S'def compile2(code, layer):'
p119
sI202
S"    return compile(code.rstrip(), layer, 'exec')"
p120
sI203
S''
sI204
S''
sI205
S"def restricted(code, environment=None, layer='Unknown'):"
p121
sI206
S'    """'
p122
ssg101
S'(code=r"response.write(\'<!DOCTYPE html>\\n<!--[if (gt IE ...  </script>\\n  </body>\\n</html>\\n\', escape=False)", layer=\'/Users/myo/Documents/Work/web2py/web2py/applications/thecvroom/views/default/resume_writing.html\')'
p123
sg103
S'compile2'
p124
sasS'pyver'
p125
S'Python 2.7.10: /usr/bin/python (prefix: /System/Library/Frameworks/Python.framework/Versions/2.7)'
p126
sS'session'
p127
g71
(S's\x0f\t\x00\x00<div><table><tr><td style="font-weight:bold;vertical-align:top;">auth</td><td style="vertical-align:top;">:</td><td><div><table><tr><td style="font-weight:bold;vertical-align:top;">expiration</td><td style="vertical-align:top;">:</td><td><div>3600</div></td></tr><tr><td style="font-weight:bold;vertical-align:top;">hmac_key</td><td style="vertical-align:top;">:</td><td><div>e7369231-059a-4755-b16d-332307e227e1</div></td></tr><tr><td style="font-weight:bold;vertical-align:top;">last_visit</td><td style="vertical-align:top;">:</td><td><div>datetime.datetime(2017, 9, 4, 1, 13, 13, 600459)</div></td></tr><tr><td style="font-weight:bold;vertical-align:top;">user</td><td style="vertical-align:top;">:</td><td><div><table><tr><td style="font-weight:bold;vertical-align:top;">email</td><td style="vertical-align:top;">:</td><td><div>kyaw.myo.htut.420@gmail.com</div></td></tr><tr><td style="font-weight:bold;vertical-align:top;">first_name</td><td style="vertical-align:top;">:</td><td><div>Kyaw</div></td></tr><tr><td style="font-weight:bold;vertical-align:top;">id</td><td style="vertical-align:top;">:</td><td><div>2L</div></td></tr><tr><td style="font-weight:bold;vertical-align:top;">last_name</td><td style="vertical-align:top;">:</td><td><div>Myo Htut</div></td></tr><tr><td style="font-weight:bold;vertical-align:top;">registration_id</td><td style="vertical-align:top;">:</td><td><div></div></td></tr><tr><td style="font-weight:bold;vertical-align:top;">registration_key</td><td style="vertical-align:top;">:</td><td><div></div></td></tr><tr><td style="font-weight:bold;vertical-align:top;">reset_password_key</td><td style="vertical-align:top;">:</td><td><div></div></td></tr></table></div></td></tr><tr><td style="font-weight:bold;vertical-align:top;">user_groups</td><td style="vertical-align:top;">:</td><td><div><table></table></div></td></tr></table></div></td></tr><tr><td style="font-weight:bold;vertical-align:top;">flash</td><td style="vertical-align:top;">:</td><td><div>None</div></td></tr><tr><td style="font-weight:bold;vertical-align:top;">last_orderby</td><td style="vertical-align:top;">:</td><td><div>None</div></td></tr><tr><td style="font-weight:bold;vertical-align:top;">last_query</td><td style="vertical-align:top;">:</td><td><div>db.auth_membership.id&gt;0</div></td></tr></table></div>'
tRp128
sS'etype'
p129
S"<type 'exceptions.SyntaxError'>"
p130
sS'date'
p131
S'Mon Sep  4 01:16:04 2017'
p132
sS'response'
p133
g71
(S's\xad?\x00\x00<div><table><tr><td style="font-weight:bold;vertical-align:top;">body</td><td style="vertical-align:top;">:</td><td><div>&lt;cStringIO.StringO object at 0x1037cc340&gt;</div></td></tr><tr><td style="font-weight:bold;vertical-align:top;">cookies</td><td style="vertical-align:top;">:</td><td><div><table><tr><td style="font-weight:bold;vertical-align:top;">session_id_thecvroom</td><td style="vertical-align:top;">:</td><td><div>127.0.0.1-106ca69d-e44e-4db6-96e3-dedb7339347a<table><tr><td style="font-weight:bold;vertical-align:top;">comment</td><td style="vertical-align:top;">:</td><td><div></div></td></tr><tr><td style="font-weight:bold;vertical-align:top;">domain</td><td style="vertical-align:top;">:</td><td><div></div></td></tr><tr><td style="font-weight:bold;vertical-align:top;">expires</td><td style="vertical-align:top;">:</td><td><div></div></td></tr><tr><td style="font-weight:bold;vertical-align:top;">httponly</td><td style="vertical-align:top;">:</td><td><div></div></td></tr><tr><td style="font-weight:bold;vertical-align:top;">max-age</td><td style="vertical-align:top;">:</td><td><div></div></td></tr><tr><td style="font-weight:bold;vertical-align:top;">path</td><td style="vertical-align:top;">:</td><td><div>/</div></td></tr><tr><td style="font-weight:bold;vertical-align:top;">secure</td><td style="vertical-align:top;">:</td><td><div></div></td></tr><tr><td style="font-weight:bold;vertical-align:top;">version</td><td style="vertical-align:top;">:</td><td><div></div></td></tr></table></div></td></tr></table></div></td></tr><tr><td style="font-weight:bold;vertical-align:top;">delimiters</td><td style="vertical-align:top;">:</td><td><div><table><tr><td><div>{{</div></td></tr><tr><td><div>}}</div></td></tr></table></div></td></tr><tr><td style="font-weight:bold;vertical-align:top;">files</td><td style="vertical-align:top;">:</td><td><div><table></table></div></td></tr><tr><td style="font-weight:bold;vertical-align:top;">flash</td><td style="vertical-align:top;">:</td><td><div></div></td></tr><tr><td style="font-weight:bold;vertical-align:top;">form_label_separator</td><td style="vertical-align:top;">:</td><td><div></div></td></tr><tr><td style="font-weight:bold;vertical-align:top;">formstyle</td><td style="vertical-align:top;">:</td><td><div>bootstrap3_inline</div></td></tr><tr><td style="font-weight:bold;vertical-align:top;">generic_patterns</td><td style="vertical-align:top;">:</td><td><div><table><tr><td><div>*</div></td></tr></table></div></td></tr><tr><td style="font-weight:bold;vertical-align:top;">google_analytics_id</td><td style="vertical-align:top;">:</td><td><div>None</div></td></tr><tr><td style="font-weight:bold;vertical-align:top;">headers</td><td style="vertical-align:top;">:</td><td><div><table><tr><td style="font-weight:bold;vertical-align:top;">X-Powered-By</td><td style="vertical-align:top;">:</td><td><div>web2py</div></td></tr></table></div></td></tr><tr><td style="font-weight:bold;vertical-align:top;">logo</td><td style="vertical-align:top;">:</td><td><div><a class="navbar-brand" href="http://www.web2py.com/" id="web2py-logo"><b>thecvroom</b>&trade;&nbsp;</a></div></td></tr><tr><td style="font-weight:bold;vertical-align:top;">menu</td><td style="vertical-align:top;">:</td><td><div><table><tr><td><div><table><tr><td><div>Home</div></td></tr><tr><td><div>False</div></td></tr><tr><td><div>/thecvroom/default/index</div></td></tr><tr><td><div><table></table></div></td></tr></table></div></td></tr><tr><td><div><table><tr><td><div>My Sites</div></td></tr><tr><td><div>False</div></td></tr><tr><td><div>/admin/default/site</div></td></tr></table></div></td></tr><tr><td><div><table><tr><td><div>This App</div></td></tr><tr><td><div>False</div></td></tr><tr><td><div>#</div></td></tr><tr><td><div><table><tr><td><div><table><tr><td><div>Design</div></td></tr><tr><td><div>False</div></td></tr><tr><td><div>/admin/default/design/thecvroom</div></td></tr></table></div></td></tr><tr><td><div><li class="divider"></li></div></td></tr><tr><td><div><table><tr><td><div>Controller</div></td></tr><tr><td><div>False</div></td></tr><tr><td><div>/admin/default/edit/thecvroom/controllers/default.py</div></td></tr></table></div></td></tr><tr><td><div><table><tr><td><div>View</div></td></tr><tr><td><div>False</div></td></tr><tr><td><div>/admin/default/edit/thecvroom/views/default/resume_writing.html</div></td></tr></table></div></td></tr><tr><td><div><table><tr><td><div>DB Model</div></td></tr><tr><td><div>False</div></td></tr><tr><td><div>/admin/default/edit/thecvroom/models/db.py</div></td></tr></table></div></td></tr><tr><td><div><table><tr><td><div>Menu Model</div></td></tr><tr><td><div>False</div></td></tr><tr><td><div>/admin/default/edit/thecvroom/models/menu.py</div></td></tr></table></div></td></tr><tr><td><div><table><tr><td><div>Config.ini</div></td></tr><tr><td><div>False</div></td></tr><tr><td><div>/admin/default/edit/thecvroom/private/appconfig.ini</div></td></tr></table></div></td></tr><tr><td><div><table><tr><td><div>Layout</div></td></tr><tr><td><div>False</div></td></tr><tr><td><div>/admin/default/edit/thecvroom/views/layout.html</div></td></tr></table></div></td></tr><tr><td><div><table><tr><td><div>Stylesheet</div></td></tr><tr><td><div>False</div></td></tr><tr><td><div>/admin/default/edit/thecvroom/static/css/web2py-bootstrap3.css</div></td></tr></table></div></td></tr><tr><td><div><table><tr><td><div>Database</div></td></tr><tr><td><div>False</div></td></tr><tr><td><div>/thecvroom/appadmin/index</div></td></tr></table></div></td></tr><tr><td><div><table><tr><td><div>Errors</div></td></tr><tr><td><div>False</div></td></tr><tr><td><div>/admin/default/errors/thecvroom</div></td></tr></table></div></td></tr><tr><td><div><table><tr><td><div>About</div></td></tr><tr><td><div>False</div></td></tr><tr><td><div>/admin/default/about/thecvroom</div></td></tr></table></div></td></tr></table></div></td></tr></table></div></td></tr><tr><td><div><table><tr><td><div>web2py.com</div></td></tr><tr><td><div>False</div></td></tr><tr><td><div>#</div></td></tr><tr><td><div><table><tr><td><div><table><tr><td><div>Download</div></td></tr><tr><td><div>False</div></td></tr><tr><td><div>http://www.web2py.com/examples/default/download</div></td></tr></table></div></td></tr><tr><td><div><table><tr><td><div>Support</div></td></tr><tr><td><div>False</div></td></tr><tr><td><div>http://www.web2py.com/examples/default/support</div></td></tr></table></div></td></tr><tr><td><div><table><tr><td><div>Demo</div></td></tr><tr><td><div>False</div></td></tr><tr><td><div>http://web2py.com/demo_admin</div></td></tr></table></div></td></tr><tr><td><div><table><tr><td><div>Quick Examples</div></td></tr><tr><td><div>False</div></td></tr><tr><td><div>http://web2py.com/examples/default/examples</div></td></tr></table></div></td></tr><tr><td><div><table><tr><td><div>FAQ</div></td></tr><tr><td><div>False</div></td></tr><tr><td><div>http://web2py.com/AlterEgo</div></td></tr></table></div></td></tr><tr><td><div><table><tr><td><div>Videos</div></td></tr><tr><td><div>False</div></td></tr><tr><td><div>http://www.web2py.com/examples/default/videos/</div></td></tr></table></div></td></tr><tr><td><div><table><tr><td><div>Free Applications</div></td></tr><tr><td><div>False</div></td></tr><tr><td><div>http://web2py.com/appliances</div></td></tr></table></div></td></tr><tr><td><div><table><tr><td><div>Plugins</div></td></tr><tr><td><div>False</div></td></tr><tr><td><div>http://web2py.com/plugins</div></td></tr></table></div></td></tr><tr><td><div><table><tr><td><div>Recipes</div></td></tr><tr><td><div>False</div></td></tr><tr><td><div>http://web2pyslices.com/</div></td></tr></table></div></td></tr></table></div></td></tr></table></div></td></tr><tr><td><div><table><tr><td><div>Documentation</div></td></tr><tr><td><div>False</div></td></tr><tr><td><div>#</div></td></tr><tr><td><div><table><tr><td><div><table><tr><td><div>Online book</div></td></tr><tr><td><div>False</div></td></tr><tr><td><div>http://www.web2py.com/book</div></td></tr></table></div></td></tr><tr><td><div><li class="divider"></li></div></td></tr><tr><td><div><table><tr><td><div>Preface</div></td></tr><tr><td><div>False</div></td></tr><tr><td><div>http://www.web2py.com/book/default/chapter/00</div></td></tr></table></div></td></tr><tr><td><div><table><tr><td><div>Introduction</div></td></tr><tr><td><div>False</div></td></tr><tr><td><div>http://www.web2py.com/book/default/chapter/01</div></td></tr></table></div></td></tr><tr><td><div><table><tr><td><div>Python</div></td></tr><tr><td><div>False</div></td></tr><tr><td><div>http://www.web2py.com/book/default/chapter/02</div></td></tr></table></div></td></tr><tr><td><div><table><tr><td><div>Overview</div></td></tr><tr><td><div>False</div></td></tr><tr><td><div>http://www.web2py.com/book/default/chapter/03</div></td></tr></table></div></td></tr><tr><td><div><table><tr><td><div>The Core</div></td></tr><tr><td><div>False</div></td></tr><tr><td><div>http://www.web2py.com/book/default/chapter/04</div></td></tr></table></div></td></tr><tr><td><div><table><tr><td><div>The Views</div></td></tr><tr><td><div>False</div></td></tr><tr><td><div>http://www.web2py.com/book/default/chapter/05</div></td></tr></table></div></td></tr><tr><td><div><table><tr><td><div>Database</div></td></tr><tr><td><div>False</div></td></tr><tr><td><div>http://www.web2py.com/book/default/chapter/06</div></td></tr></table></div></td></tr><tr><td><div><table><tr><td><div>Forms and Validators</div></td></tr><tr><td><div>False</div></td></tr><tr><td><div>http://www.web2py.com/book/default/chapter/07</div></td></tr></table></div></td></tr><tr><td><div><table><tr><td><div>Email and SMS</div></td></tr><tr><td><div>False</div></td></tr><tr><td><div>http://www.web2py.com/book/default/chapter/08</div></td></tr></table></div></td></tr><tr><td><div><table><tr><td><div>Access Control</div></td></tr><tr><td><div>False</div></td></tr><tr><td><div>http://www.web2py.com/book/default/chapter/09</div></td></tr></table></div></td></tr><tr><td><div><table><tr><td><div>Services</div></td></tr><tr><td><div>False</div></td></tr><tr><td><div>http://www.web2py.com/book/default/chapter/10</div></td></tr></table></div></td></tr><tr><td><div><table><tr><td><div>Ajax Recipes</div></td></tr><tr><td><div>False</div></td></tr><tr><td><div>http://www.web2py.com/book/default/chapter/11</div></td></tr></table></div></td></tr><tr><td><div><table><tr><td><div>Components and Plugins</div></td></tr><tr><td><div>False</div></td></tr><tr><td><div>http://www.web2py.com/book/default/chapter/12</div></td></tr></table></div></td></tr><tr><td><div><table><tr><td><div>Deployment Recipes</div></td></tr><tr><td><div>False</div></td></tr><tr><td><div>http://www.web2py.com/book/default/chapter/13</div></td></tr></table></div></td></tr><tr><td><div><table><tr><td><div>Other Recipes</div></td></tr><tr><td><div>False</div></td></tr><tr><td><div>http://www.web2py.com/book/default/chapter/14</div></td></tr></table></div></td></tr><tr><td><div><table><tr><td><div>Helping web2py</div></td></tr><tr><td><div>False</div></td></tr><tr><td><div>http://www.web2py.com/book/default/chapter/15</div></td></tr></table></div></td></tr><tr><td><div><table><tr><td><div>Buy web2py\'s book</div></td></tr><tr><td><div>False</div></td></tr><tr><td><div>http://stores.lulu.com/web2py</div></td></tr></table></div></td></tr></table></div></td></tr></table></div></td></tr><tr><td><div><table><tr><td><div>Community</div></td></tr><tr><td><div>False</div></td></tr><tr><td><div>None</div></td></tr><tr><td><div><table><tr><td><div><table><tr><td><div>Groups</div></td></tr><tr><td><div>False</div></td></tr><tr><td><div>http://www.web2py.com/examples/default/usergroups</div></td></tr></table></div></td></tr><tr><td><div><table><tr><td><div>Twitter</div></td></tr><tr><td><div>False</div></td></tr><tr><td><div>http://twitter.com/web2py</div></td></tr></table></div></td></tr><tr><td><div><table><tr><td><div>Live Chat</div></td></tr><tr><td><div>False</div></td></tr><tr><td><div>http://webchat.freenode.net/?channels=web2py</div></td></tr></table></div></td></tr></table></div></td></tr></table></div></td></tr></table></div></td></tr><tr><td style="font-weight:bold;vertical-align:top;">meta</td><td style="vertical-align:top;">:</td><td><div><table><tr><td style="font-weight:bold;vertical-align:top;">author</td><td style="vertical-align:top;">:</td><td><div>Your Name &lt;you@example.com&gt;</div></td></tr><tr><td style="font-weight:bold;vertical-align:top;">description</td><td style="vertical-align:top;">:</td><td><div>a cool new app</div></td></tr><tr><td style="font-weight:bold;vertical-align:top;">generator</td><td style="vertical-align:top;">:</td><td><div>Web2py Web Framework</div></td></tr><tr><td style="font-weight:bold;vertical-align:top;">keywords</td><td style="vertical-align:top;">:</td><td><div><table><tr><td><div>web2py</div></td></tr><tr><td><div>python</div></td></tr><tr><td><div>framework</div></td></tr></table></div></td></tr></table></div></td></tr><tr><td style="font-weight:bold;vertical-align:top;">models_to_run</td><td style="vertical-align:top;">:</td><td><div><table><tr><td><div>^\\w+\\.py$</div></td></tr><tr><td><div>^default/\\w+\\.py$</div></td></tr><tr><td><div>^default/resume_writing/\\w+\\.py$</div></td></tr></table></div></td></tr><tr><td style="font-weight:bold;vertical-align:top;">postprocessing</td><td style="vertical-align:top;">:</td><td><div><table></table></div></td></tr><tr><td style="font-weight:bold;vertical-align:top;">session_client</td><td style="vertical-align:top;">:</td><td><div>127.0.0.1</div></td></tr><tr><td style="font-weight:bold;vertical-align:top;">session_cookie_compression_level</td><td style="vertical-align:top;">:</td><td><div>None</div></td></tr><tr><td style="font-weight:bold;vertical-align:top;">session_cookie_expires</td><td style="vertical-align:top;">:</td><td><div>None</div></td></tr><tr><td style="font-weight:bold;vertical-align:top;">session_data_name</td><td style="vertical-align:top;">:</td><td><div>session_data_thecvroom</div></td></tr><tr><td style="font-weight:bold;vertical-align:top;">session_file</td><td style="vertical-align:top;">:</td><td><div>&lt;open file &#x27;/Users/myo/Documents/Work/web2py/web2py/applications/thecvroom/sessions/028/097/127.0.0.1-106ca69d-e44e-4db6-96e3-dedb7339347a&#x27;, mode &#x27;rb+&#x27; at 0x1038e9ed0&gt;</div></td></tr><tr><td style="font-weight:bold;vertical-align:top;">session_filename</td><td style="vertical-align:top;">:</td><td><div>/Users/myo/Documents/Work/web2py/web2py/applications/thecvroom/sessions/127.0.0.1-106ca69d-e44e-4db6-96e3-dedb7339347a</div></td></tr><tr><td style="font-weight:bold;vertical-align:top;">session_hash</td><td style="vertical-align:top;">:</td><td><div>6d286245511fb4b9667df37421106cf6</div></td></tr><tr><td style="font-weight:bold;vertical-align:top;">session_id</td><td style="vertical-align:top;">:</td><td><div>127.0.0.1-106ca69d-e44e-4db6-96e3-dedb7339347a</div></td></tr><tr><td style="font-weight:bold;vertical-align:top;">session_id_name</td><td style="vertical-align:top;">:</td><td><div>session_id_thecvroom</div></td></tr><tr><td style="font-weight:bold;vertical-align:top;">session_locked</td><td style="vertical-align:top;">:</td><td><div>True</div></td></tr><tr><td style="font-weight:bold;vertical-align:top;">session_masterapp</td><td style="vertical-align:top;">:</td><td><div>thecvroom</div></td></tr><tr><td style="font-weight:bold;vertical-align:top;">session_new</td><td style="vertical-align:top;">:</td><td><div>False</div></td></tr><tr><td style="font-weight:bold;vertical-align:top;">session_storage_type</td><td style="vertical-align:top;">:</td><td><div>file</div></td></tr><tr><td style="font-weight:bold;vertical-align:top;">status</td><td style="vertical-align:top;">:</td><td><div>200</div></td></tr><tr><td style="font-weight:bold;vertical-align:top;">subtitle</td><td style="vertical-align:top;">:</td><td><div></div></td></tr><tr><td style="font-weight:bold;vertical-align:top;">title</td><td style="vertical-align:top;">:</td><td><div>Thecvroom</div></td></tr><tr><td style="font-weight:bold;vertical-align:top;">view</td><td style="vertical-align:top;">:</td><td><div>default/resume_writing.html</div></td></tr></table></div>'
tRp134
sS'locals'
p135
(dp136
g4
S"'/Users/myo/Documents/Work/web2py/web2py/applications/thecvroom/views/default/resume_writing.html'"
p137
sg6
S'r"response.write(\'<!DOCTYPE html>\\n<!--[if (gt IE ...  </script>\\n  </body>\\n</html>\\n\', escape=False)"'
p138
sssS'traceback'
p139
S'Traceback (most recent call last):\n  File "/Users/myo/Documents/Work/web2py/web2py/gluon/restricted.py", line 219, in restricted\n    ccode = compile2(code, layer)\n  File "/Users/myo/Documents/Work/web2py/web2py/gluon/restricted.py", line 202, in compile2\n    return compile(code.rstrip(), layer, \'exec\')\n  File "/Users/myo/Documents/Work/web2py/web2py/applications/thecvroom/views/default/resume_writing.html", line 83\n    <input type="radio" name="linkedin" value="true">\nSyntaxError: keyword can\'t be an expression\n'
p140
s.